; Function Attrs: mustprogress nounwind willreturn memory(argmem: readwrite, inaccessiblemem: readwrite) uwtable
define internal void @relfn(ptr noundef captures(address_is_null) %0) #8 {
  %.not = icmp eq ptr %0, null
  br i1 %.not, label %3, label %2

2:                                                ; preds = %1
  tail call void @free(ptr noundef nonnull %0) #15
  br label %3

3:                                                ; preds = %2, %1
  ret void
}